target datalayout = "e-m:e-p270:32:32-p271:32:32-p272:64:64-i64:64-i128:128-f80:128-n8:16:32:64-S128"
target triple = "x86_64-pc-linux-gnu"

%struct.WebPDecParams = type { ptr, ptr, ptr, ptr, i32, ptr, ptr, ptr, ptr, ptr, ptr, ptr, ptr, ptr }
%struct.WebPDecBuffer = type { i32, i32, i32, i32, %union.anon, [4 x i32], ptr }
%union.anon = type { %struct.WebPYUVABuffer }
%struct.WebPYUVABuffer = type { ptr, ptr, ptr, ptr, i32, i32, i32, i32, i64, i64, i64, i64 }

; Function Attrs: nounwind uwtable
define hidden void @WebPResetDecParams(ptr noundef %0) #0 {
  %2 = alloca ptr, align 8
  store ptr %0, ptr %2, align 8, !tbaa !25
  %3 = load ptr, ptr %2, align 8, !tbaa !25
  %4 = icmp ne ptr %3, null
  br i1 %4, label %5, label %7

5:                                                ; preds = %1
  %6 = load ptr, ptr %2, align 8, !tbaa !25
  call void @llvm.memset.p0.i64(ptr align 8 %6, i8 0, i64 112, i1 false)
  br label %7

7:                                                ; preds = %5, %1
  ret void
}

; Function Attrs: inlinehint nounwind uwtable
define internal i32 @WebPInitDecBuffer(ptr noundef %0) #3 {
  %2 = alloca ptr, align 8
  store ptr %0, ptr %2, align 8, !tbaa !36
  %3 = load ptr, ptr %2, align 8, !tbaa !36
  %4 = call i32 @WebPInitDecBufferInternal(ptr noundef %3, i32 noundef 528)
  ret i32 %4
}

; Function Attrs: nounwind uwtable
define ptr @WebPDecodeYUVInto(ptr noundef %0, i64 noundef %1, ptr noundef %2, i64 noundef %3, i32 noundef %4, ptr noundef %5, i64 noundef %6, i32 noundef %7, ptr noundef %8, i64 noundef %9, i32 noundef %10) #0 {
  %12 = alloca ptr, align 8
  %13 = alloca ptr, align 8
  %14 = alloca i64, align 8
  %15 = alloca ptr, align 8
  %16 = alloca i64, align 8
  %17 = alloca i32, align 4
  %18 = alloca ptr, align 8
  %19 = alloca i64, align 8
  %20 = alloca i32, align 4
  %21 = alloca ptr, align 8
  %22 = alloca i64, align 8
  %23 = alloca i32, align 4
  %24 = alloca %struct.WebPDecParams, align 8
  %25 = alloca %struct.WebPDecBuffer, align 8
  %26 = alloca i32, align 4
  store ptr %0, ptr %13, align 8, !tbaa !14
  store i64 %1, ptr %14, align 8, !tbaa !15
  store ptr %2, ptr %15, align 8, !tbaa !14
  store i64 %3, ptr %16, align 8, !tbaa !15
  store i32 %4, ptr %17, align 4, !tbaa !7
  store ptr %5, ptr %18, align 8, !tbaa !14
  store i64 %6, ptr %19, align 8, !tbaa !15
  store i32 %7, ptr %20, align 4, !tbaa !7
  store ptr %8, ptr %21, align 8, !tbaa !14
  store i64 %9, ptr %22, align 8, !tbaa !15
  store i32 %10, ptr %23, align 4, !tbaa !7
  call void @llvm.lifetime.start.p0(i64 112, ptr %24) #7
  call void @llvm.lifetime.start.p0(i64 120, ptr %25) #7
  %27 = load ptr, ptr %15, align 8, !tbaa !14
  %28 = icmp eq ptr %27, null
  br i1 %28, label %32, label %29

29:                                               ; preds = %11
  %30 = call i32 @WebPInitDecBuffer(ptr noundef %25)
  %31 = icmp ne i32 %30, 0
  br i1 %31, label %33, label %32

32:                                               ; preds = %29, %11
  store ptr null, ptr %12, align 8
  store i32 1, ptr %26, align 4
  br label %71

33:                                               ; preds = %29
  call void @WebPResetDecParams(ptr noundef %24)
  %34 = getelementptr inbounds nuw %struct.WebPDecParams, ptr %24, i32 0, i32 0
  store ptr %25, ptr %34, align 8, !tbaa !27
  %35 = getelementptr inbounds nuw %struct.WebPDecBuffer, ptr %25, i32 0, i32 0
  store i32 11, ptr %35, align 8, !tbaa !32
  %36 = load ptr, ptr %15, align 8, !tbaa !14
  %37 = getelementptr inbounds nuw %struct.WebPDecBuffer, ptr %25, i32 0, i32 4
  %38 = getelementptr inbounds nuw %struct.WebPYUVABuffer, ptr %37, i32 0, i32 0
  store ptr %36, ptr %38, align 8, !tbaa !34
  %39 = load i32, ptr %17, align 4, !tbaa !7
  %40 = getelementptr inbounds nuw %struct.WebPDecBuffer, ptr %25, i32 0, i32 4
  %41 = getelementptr inbounds nuw %struct.WebPYUVABuffer, ptr %40, i32 0, i32 4
  store i32 %39, ptr %41, align 8, !tbaa !34
  %42 = load i64, ptr %16, align 8, !tbaa !15
  %43 = getelementptr inbounds nuw %struct.WebPDecBuffer, ptr %25, i32 0, i32 4
  %44 = getelementptr inbounds nuw %struct.WebPYUVABuffer, ptr %43, i32 0, i32 8
  store i64 %42, ptr %44, align 8, !tbaa !34
  %45 = load ptr, ptr %18, align 8, !tbaa !14
  %46 = getelementptr inbounds nuw %struct.WebPDecBuffer, ptr %25, i32 0, i32 4
  %47 = getelementptr inbounds nuw %struct.WebPYUVABuffer, ptr %46, i32 0, i32 1
  store ptr %45, ptr %47, align 8, !tbaa !34
  %48 = load i32, ptr %20, align 4, !tbaa !7
  %49 = getelementptr inbounds nuw %struct.WebPDecBuffer, ptr %25, i32 0, i32 4
  %50 = getelementptr inbounds nuw %struct.WebPYUVABuffer, ptr %49, i32 0, i32 5
  store i32 %48, ptr %50, align 4, !tbaa !34
  %51 = load i64, ptr %19, align 8, !tbaa !15
  %52 = getelementptr inbounds nuw %struct.WebPDecBuffer, ptr %25, i32 0, i32 4
  %53 = getelementptr inbounds nuw %struct.WebPYUVABuffer, ptr %52, i32 0, i32 9
  store i64 %51, ptr %53, align 8, !tbaa !34
  %54 = load ptr, ptr %21, align 8, !tbaa !14
  %55 = getelementptr inbounds nuw %struct.WebPDecBuffer, ptr %25, i32 0, i32 4
  %56 = getelementptr inbounds nuw %struct.WebPYUVABuffer, ptr %55, i32 0, i32 2
  store ptr %54, ptr %56, align 8, !tbaa !34
  %57 = load i32, ptr %23, align 4, !tbaa !7
  %58 = getelementptr inbounds nuw %struct.WebPDecBuffer, ptr %25, i32 0, i32 4
  %59 = getelementptr inbounds nuw %struct.WebPYUVABuffer, ptr %58, i32 0, i32 6
  store i32 %57, ptr %59, align 8, !tbaa !34
  %60 = load i64, ptr %22, align 8, !tbaa !15
  %61 = getelementptr inbounds nuw %struct.WebPDecBuffer, ptr %25, i32 0, i32 4
  %62 = getelementptr inbounds nuw %struct.WebPYUVABuffer, ptr %61, i32 0, i32 10
  store i64 %60, ptr %62, align 8, !tbaa !34
  %63 = getelementptr inbounds nuw %struct.WebPDecBuffer, ptr %25, i32 0, i32 3
  store i32 1, ptr %63, align 4, !tbaa !35
  %64 = load ptr, ptr %13, align 8, !tbaa !14
  %65 = load i64, ptr %14, align 8, !tbaa !15
  %66 = call i32 @DecodeInto(ptr noundef %64, i64 noundef %65, ptr noundef %24)
  %67 = icmp ne i32 %66, 0
  br i1 %67, label %68, label %69

68:                                               ; preds = %33
  store ptr null, ptr %12, align 8
  store i32 1, ptr %26, align 4
  br label %71

69:                                               ; preds = %33
  %70 = load ptr, ptr %15, align 8, !tbaa !14
  store ptr %70, ptr %12, align 8
  store i32 1, ptr %26, align 4
  br label %71

71:                                               ; preds = %69, %68, %32
  call void @llvm.lifetime.end.p0(i64 120, ptr %25) #7
  call void @llvm.lifetime.end.p0(i64 112, ptr %24) #7
  %72 = load ptr, ptr %12, align 8
  ret ptr %72
}