; Function Attrs: nounwind uwtable
define ptr @WebPDecodeYUVInto(ptr noundef %0, i64 noundef %1, ptr noundef %2, i64 noundef %3, i32 noundef %4, ptr noundef %5, i64 noundef %6, i32 noundef %7, ptr noundef %8, i64 noundef %9, i32 noundef %10) local_unnamed_addr #0 {
  %12 = alloca %struct.WebPDecParams, align 8
  %13 = alloca %struct.WebPDecBuffer, align 8
  call void @llvm.lifetime.start.p0(i64 112, ptr nonnull %12) #10
  call void @llvm.lifetime.start.p0(i64 120, ptr nonnull %13) #10
  %14 = icmp eq ptr %2, null
  br i1 %14, label %30, label %15

15:                                               ; preds = %11
  %16 = call i32 @WebPInitDecBufferInternal(ptr noundef nonnull %13, i32 noundef 528) #10
  %.not = icmp eq i32 %16, 0
  br i1 %.not, label %30, label %17

17:                                               ; preds = %15
  %18 = getelementptr inbounds nuw i8, ptr %12, i64 8
  call void @llvm.memset.p0.i64(ptr noundef nonnull align 8 dereferenceable(112) %18, i8 0, i64 104, i1 false)
  store ptr %13, ptr %12, align 8, !tbaa !23
  store i32 11, ptr %13, align 8, !tbaa !28
  %19 = getelementptr inbounds nuw i8, ptr %13, i64 16
  store ptr %2, ptr %19, align 8, !tbaa !16
  %20 = getelementptr inbounds nuw i8, ptr %13, i64 48
  store i32 %4, ptr %20, align 8, !tbaa !16
  %21 = getelementptr inbounds nuw i8, ptr %13, i64 64
  store i64 %3, ptr %21, align 8, !tbaa !16
  %22 = getelementptr inbounds nuw i8, ptr %13, i64 24
  store ptr %5, ptr %22, align 8, !tbaa !16
  %23 = getelementptr inbounds nuw i8, ptr %13, i64 52
  store i32 %7, ptr %23, align 4, !tbaa !16
  %24 = getelementptr inbounds nuw i8, ptr %13, i64 72
  store i64 %6, ptr %24, align 8, !tbaa !16
  %25 = getelementptr inbounds nuw i8, ptr %13, i64 32
  store ptr %8, ptr %25, align 8, !tbaa !16
  %26 = getelementptr inbounds nuw i8, ptr %13, i64 56
  store i32 %10, ptr %26, align 8, !tbaa !16
  %27 = getelementptr inbounds nuw i8, ptr %13, i64 80
  store i64 %9, ptr %27, align 8, !tbaa !16
  %28 = getelementptr inbounds nuw i8, ptr %13, i64 12
  store i32 1, ptr %28, align 4, !tbaa !30
  %29 = call fastcc i32 @DecodeInto(ptr noundef %0, i64 noundef %1, ptr noundef %12)
  %.not14 = icmp eq i32 %29, 0
  %. = select i1 %.not14, ptr %2, ptr null
  br label %30

30:                                               ; preds = %17, %11, %15
  %.0 = phi ptr [ null, %15 ], [ null, %11 ], [ %., %17 ]
  call void @llvm.lifetime.end.p0(i64 120, ptr nonnull %13) #10
  call void @llvm.lifetime.end.p0(i64 112, ptr nonnull %12) #10
  ret ptr %.0
}